target datalayout = "e-m:e-p270:32:32-p271:32:32-p272:64:64-i64:64-i128:128-f80:128-n8:16:32:64-S128"
target triple = "x86_64-pc-linux-gnu"

%"class.pxrInternal_v0_24__pxrReserved__::GfMatrix4f" = type { %"class.pxrInternal_v0_24__pxrReserved__::GfMatrixData" }
%"class.pxrInternal_v0_24__pxrReserved__::GfMatrixData" = type { [16 x float] }
%"class.pxrInternal_v0_24__pxrReserved__::GfMatrix4d" = type { %"class.pxrInternal_v0_24__pxrReserved__::GfMatrixData.0" }
%"class.pxrInternal_v0_24__pxrReserved__::GfMatrixData.0" = type { [16 x double] }

; Function Attrs: mustprogress nounwind uwtable
define linkonce_odr noundef ptr @_ZN32pxrInternal_v0_24__pxrReserved__12GfMatrixDataIfLi4ELi4EEixEi(ptr noundef nonnull align 4 dereferenceable(64) %0, i32 noundef %1) #2 comdat align 2 {
  %3 = alloca ptr, align 8
  %4 = alloca i32, align 4
  store ptr %0, ptr %3, align 8
  store i32 %1, ptr %4, align 4
  %5 = load ptr, ptr %3, align 8
  %6 = getelementptr inbounds nuw %"class.pxrInternal_v0_24__pxrReserved__::GfMatrixData", ptr %5, i32 0, i32 0
  %7 = getelementptr inbounds [16 x float], ptr %6, i64 0, i64 0
  %8 = load i32, ptr %4, align 4
  %9 = mul nsw i32 %8, 4
  %10 = sext i32 %9 to i64
  %11 = getelementptr inbounds float, ptr %7, i64 %10
  ret ptr %11
}

; Function Attrs: mustprogress nounwind uwtable
define linkonce_odr noundef ptr @_ZNK32pxrInternal_v0_24__pxrReserved__12GfMatrixDataIdLi4ELi4EEixEi(ptr noundef nonnull align 8 dereferenceable(128) %0, i32 noundef %1) #2 comdat align 2 {
  %3 = alloca ptr, align 8
  %4 = alloca i32, align 4
  store ptr %0, ptr %3, align 8
  store i32 %1, ptr %4, align 4
  %5 = load ptr, ptr %3, align 8
  %6 = getelementptr inbounds nuw %"class.pxrInternal_v0_24__pxrReserved__::GfMatrixData.0", ptr %5, i32 0, i32 0
  %7 = getelementptr inbounds [16 x double], ptr %6, i64 0, i64 0
  %8 = load i32, ptr %4, align 4
  %9 = mul nsw i32 %8, 4
  %10 = sext i32 %9 to i64
  %11 = getelementptr inbounds double, ptr %7, i64 %10
  ret ptr %11
}

; Function Attrs: mustprogress uwtable
define linkonce_odr noundef nonnull align 4 dereferenceable(64) ptr @_ZN32pxrInternal_v0_24__pxrReserved__10GfMatrix4f3SetEffffffffffffffff(ptr noundef nonnull align 4 dereferenceable(64) %0, float noundef %1, float noundef %2, float noundef %3, float noundef %4, float noundef %5, float noundef %6, float noundef %7, float noundef %8, float noundef %9, float noundef %10, float noundef %11, float noundef %12, float noundef %13, float noundef %14, float noundef %15, float noundef %16) #0 comdat align 2 {
  %18 = alloca ptr, align 8
  %19 = alloca float, align 4
  %20 = alloca float, align 4
  %21 = alloca float, align 4
  %22 = alloca float, align 4
  %23 = alloca float, align 4
  %24 = alloca float, align 4
  %25 = alloca float, align 4
  %26 = alloca float, align 4
  %27 = alloca float, align 4
  %28 = alloca float, align 4
  %29 = alloca float, align 4
  %30 = alloca float, align 4
  %31 = alloca float, align 4
  %32 = alloca float, align 4
  %33 = alloca float, align 4
  %34 = alloca float, align 4
  store ptr %0, ptr %18, align 8
  store float %1, ptr %19, align 4
  store float %2, ptr %20, align 4
  store float %3, ptr %21, align 4
  store float %4, ptr %22, align 4
  store float %5, ptr %23, align 4
  store float %6, ptr %24, align 4
  store float %7, ptr %25, align 4
  store float %8, ptr %26, align 4
  store float %9, ptr %27, align 4
  store float %10, ptr %28, align 4
  store float %11, ptr %29, align 4
  store float %12, ptr %30, align 4
  store float %13, ptr %31, align 4
  store float %14, ptr %32, align 4
  store float %15, ptr %33, align 4
  store float %16, ptr %34, align 4
  %35 = load ptr, ptr %18, align 8
  %36 = load float, ptr %19, align 4
  %37 = getelementptr inbounds nuw %"class.pxrInternal_v0_24__pxrReserved__::GfMatrix4f", ptr %35, i32 0, i32 0
  %38 = call noundef ptr @_ZN32pxrInternal_v0_24__pxrReserved__12GfMatrixDataIfLi4ELi4EEixEi(ptr noundef nonnull align 4 dereferenceable(64) %37, i32 noundef 0)
  %39 = getelementptr inbounds float, ptr %38, i64 0
  store float %36, ptr %39, align 4
  %40 = load float, ptr %20, align 4
  %41 = getelementptr inbounds nuw %"class.pxrInternal_v0_24__pxrReserved__::GfMatrix4f", ptr %35, i32 0, i32 0
  %42 = call noundef ptr @_ZN32pxrInternal_v0_24__pxrReserved__12GfMatrixDataIfLi4ELi4EEixEi(ptr noundef nonnull align 4 dereferenceable(64) %41, i32 noundef 0)
  %43 = getelementptr inbounds float, ptr %42, i64 1
  store float %40, ptr %43, align 4
  %44 = load float, ptr %21, align 4
  %45 = getelementptr inbounds nuw %"class.pxrInternal_v0_24__pxrReserved__::GfMatrix4f", ptr %35, i32 0, i32 0
  %46 = call noundef ptr @_ZN32pxrInternal_v0_24__pxrReserved__12GfMatrixDataIfLi4ELi4EEixEi(ptr noundef nonnull align 4 dereferenceable(64) %45, i32 noundef 0)
  %47 = getelementptr inbounds float, ptr %46, i64 2
  store float %44, ptr %47, align 4
  %48 = load float, ptr %22, align 4
  %49 = getelementptr inbounds nuw %"class.pxrInternal_v0_24__pxrReserved__::GfMatrix4f", ptr %35, i32 0, i32 0
  %50 = call noundef ptr @_ZN32pxrInternal_v0_24__pxrReserved__12GfMatrixDataIfLi4ELi4EEixEi(ptr noundef nonnull align 4 dereferenceable(64) %49, i32 noundef 0)
  %51 = getelementptr inbounds float, ptr %50, i64 3
  store float %48, ptr %51, align 4
  %52 = load float, ptr %23, align 4
  %53 = getelementptr inbounds nuw %"class.pxrInternal_v0_24__pxrReserved__::GfMatrix4f", ptr %35, i32 0, i32 0
  %54 = call noundef ptr @_ZN32pxrInternal_v0_24__pxrReserved__12GfMatrixDataIfLi4ELi4EEixEi(ptr noundef nonnull align 4 dereferenceable(64) %53, i32 noundef 1)
  %55 = getelementptr inbounds float, ptr %54, i64 0
  store float %52, ptr %55, align 4
  %56 = load float, ptr %24, align 4
  %57 = getelementptr inbounds nuw %"class.pxrInternal_v0_24__pxrReserved__::GfMatrix4f", ptr %35, i32 0, i32 0
  %58 = call noundef ptr @_ZN32pxrInternal_v0_24__pxrReserved__12GfMatrixDataIfLi4ELi4EEixEi(ptr noundef nonnull align 4 dereferenceable(64) %57, i32 noundef 1)
  %59 = getelementptr inbounds float, ptr %58, i64 1
  store float %56, ptr %59, align 4
  %60 = load float, ptr %25, align 4
  %61 = getelementptr inbounds nuw %"class.pxrInternal_v0_24__pxrReserved__::GfMatrix4f", ptr %35, i32 0, i32 0
  %62 = call noundef ptr @_ZN32pxrInternal_v0_24__pxrReserved__12GfMatrixDataIfLi4ELi4EEixEi(ptr noundef nonnull align 4 dereferenceable(64) %61, i32 noundef 1)
  %63 = getelementptr inbounds float, ptr %62, i64 2
  store float %60, ptr %63, align 4
  %64 = load float, ptr %26, align 4
  %65 = getelementptr inbounds nuw %"class.pxrInternal_v0_24__pxrReserved__::GfMatrix4f", ptr %35, i32 0, i32 0
  %66 = call noundef ptr @_ZN32pxrInternal_v0_24__pxrReserved__12GfMatrixDataIfLi4ELi4EEixEi(ptr noundef nonnull align 4 dereferenceable(64) %65, i32 noundef 1)
  %67 = getelementptr inbounds float, ptr %66, i64 3
  store float %64, ptr %67, align 4
  %68 = load float, ptr %27, align 4
  %69 = getelementptr inbounds nuw %"class.pxrInternal_v0_24__pxrReserved__::GfMatrix4f", ptr %35, i32 0, i32 0
  %70 = call noundef ptr @_ZN32pxrInternal_v0_24__pxrReserved__12GfMatrixDataIfLi4ELi4EEixEi(ptr noundef nonnull align 4 dereferenceable(64) %69, i32 noundef 2)
  %71 = getelementptr inbounds float, ptr %70, i64 0
  store float %68, ptr %71, align 4
  %72 = load float, ptr %28, align 4
  %73 = getelementptr inbounds nuw %"class.pxrInternal_v0_24__pxrReserved__::GfMatrix4f", ptr %35, i32 0, i32 0
  %74 = call noundef ptr @_ZN32pxrInternal_v0_24__pxrReserved__12GfMatrixDataIfLi4ELi4EEixEi(ptr noundef nonnull align 4 dereferenceable(64) %73, i32 noundef 2)
  %75 = getelementptr inbounds float, ptr %74, i64 1
  store float %72, ptr %75, align 4
  %76 = load float, ptr %29, align 4
  %77 = getelementptr inbounds nuw %"class.pxrInternal_v0_24__pxrReserved__::GfMatrix4f", ptr %35, i32 0, i32 0
  %78 = call noundef ptr @_ZN32pxrInternal_v0_24__pxrReserved__12GfMatrixDataIfLi4ELi4EEixEi(ptr noundef nonnull align 4 dereferenceable(64) %77, i32 noundef 2)
  %79 = getelementptr inbounds float, ptr %78, i64 2
  store float %76, ptr %79, align 4
  %80 = load float, ptr %30, align 4
  %81 = getelementptr inbounds nuw %"class.pxrInternal_v0_24__pxrReserved__::GfMatrix4f", ptr %35, i32 0, i32 0
  %82 = call noundef ptr @_ZN32pxrInternal_v0_24__pxrReserved__12GfMatrixDataIfLi4ELi4EEixEi(ptr noundef nonnull align 4 dereferenceable(64) %81, i32 noundef 2)
  %83 = getelementptr inbounds float, ptr %82, i64 3
  store float %80, ptr %83, align 4
  %84 = load float, ptr %31, align 4
  %85 = getelementptr inbounds nuw %"class.pxrInternal_v0_24__pxrReserved__::GfMatrix4f", ptr %35, i32 0, i32 0
  %86 = call noundef ptr @_ZN32pxrInternal_v0_24__pxrReserved__12GfMatrixDataIfLi4ELi4EEixEi(ptr noundef nonnull align 4 dereferenceable(64) %85, i32 noundef 3)
  %87 = getelementptr inbounds float, ptr %86, i64 0
  store float %84, ptr %87, align 4
  %88 = load float, ptr %32, align 4
  %89 = getelementptr inbounds nuw %"class.pxrInternal_v0_24__pxrReserved__::GfMatrix4f", ptr %35, i32 0, i32 0
  %90 = call noundef ptr @_ZN32pxrInternal_v0_24__pxrReserved__12GfMatrixDataIfLi4ELi4EEixEi(ptr noundef nonnull align 4 dereferenceable(64) %89, i32 noundef 3)
  %91 = getelementptr inbounds float, ptr %90, i64 1
  store float %88, ptr %91, align 4
  %92 = load float, ptr %33, align 4
  %93 = getelementptr inbounds nuw %"class.pxrInternal_v0_24__pxrReserved__::GfMatrix4f", ptr %35, i32 0, i32 0
  %94 = call noundef ptr @_ZN32pxrInternal_v0_24__pxrReserved__12GfMatrixDataIfLi4ELi4EEixEi(ptr noundef nonnull align 4 dereferenceable(64) %93, i32 noundef 3)
  %95 = getelementptr inbounds float, ptr %94, i64 2
  store float %92, ptr %95, align 4
  %96 = load float, ptr %34, align 4
  %97 = getelementptr inbounds nuw %"class.pxrInternal_v0_24__pxrReserved__::GfMatrix4f", ptr %35, i32 0, i32 0
  %98 = call noundef ptr @_ZN32pxrInternal_v0_24__pxrReserved__12GfMatrixDataIfLi4ELi4EEixEi(ptr noundef nonnull align 4 dereferenceable(64) %97, i32 noundef 3)
  %99 = getelementptr inbounds float, ptr %98, i64 3
  store float %96, ptr %99, align 4
  ret ptr %35
}

; Function Attrs: mustprogress uwtable
define linkonce_odr noundef ptr @_ZNK32pxrInternal_v0_24__pxrReserved__10GfMatrix4dixEi(ptr noundef nonnull align 8 dereferenceable(128) %0, i32 noundef %1) #0 comdat align 2 {
  %3 = alloca ptr, align 8
  %4 = alloca i32, align 4
  store ptr %0, ptr %3, align 8
  store i32 %1, ptr %4, align 4
  %5 = load ptr, ptr %3, align 8
  %6 = getelementptr inbounds nuw %"class.pxrInternal_v0_24__pxrReserved__::GfMatrix4d", ptr %5, i32 0, i32 0
  %7 = load i32, ptr %4, align 4
  %8 = call noundef ptr @_ZNK32pxrInternal_v0_24__pxrReserved__12GfMatrixDataIdLi4ELi4EEixEi(ptr noundef nonnull align 8 dereferenceable(128) %6, i32 noundef %7)
  ret ptr %8
}

; Function Attrs: mustprogress uwtable
define void @_ZN32pxrInternal_v0_24__pxrReserved__10GfMatrix4fC2ERKNS_10GfMatrix4dE(ptr noundef nonnull align 4 dereferenceable(64) %0, ptr noundef nonnull align 8 dereferenceable(128) %1) unnamed_addr #0 align 2 {
  %3 = alloca ptr, align 8
  %4 = alloca ptr, align 8
  store ptr %0, ptr %3, align 8
  store ptr %1, ptr %4, align 8
  %5 = load ptr, ptr %3, align 8
  %6 = load ptr, ptr %4, align 8
  %7 = call noundef ptr @_ZNK32pxrInternal_v0_24__pxrReserved__10GfMatrix4dixEi(ptr noundef nonnull align 8 dereferenceable(128) %6, i32 noundef 0)
  %8 = getelementptr inbounds double, ptr %7, i64 0
  %9 = load double, ptr %8, align 8
  %10 = fptrunc double %9 to float
  %11 = load ptr, ptr %4, align 8
  %12 = call noundef ptr @_ZNK32pxrInternal_v0_24__pxrReserved__10GfMatrix4dixEi(ptr noundef nonnull align 8 dereferenceable(128) %11, i32 noundef 0)
  %13 = getelementptr inbounds double, ptr %12, i64 1
  %14 = load double, ptr %13, align 8
  %15 = fptrunc double %14 to float
  %16 = load ptr, ptr %4, align 8
  %17 = call noundef ptr @_ZNK32pxrInternal_v0_24__pxrReserved__10GfMatrix4dixEi(ptr noundef nonnull align 8 dereferenceable(128) %16, i32 noundef 0)
  %18 = getelementptr inbounds double, ptr %17, i64 2
  %19 = load double, ptr %18, align 8
  %20 = fptrunc double %19 to float
  %21 = load ptr, ptr %4, align 8
  %22 = call noundef ptr @_ZNK32pxrInternal_v0_24__pxrReserved__10GfMatrix4dixEi(ptr noundef nonnull align 8 dereferenceable(128) %21, i32 noundef 0)
  %23 = getelementptr inbounds double, ptr %22, i64 3
  %24 = load double, ptr %23, align 8
  %25 = fptrunc double %24 to float
  %26 = load ptr, ptr %4, align 8
  %27 = call noundef ptr @_ZNK32pxrInternal_v0_24__pxrReserved__10GfMatrix4dixEi(ptr noundef nonnull align 8 dereferenceable(128) %26, i32 noundef 1)
  %28 = getelementptr inbounds double, ptr %27, i64 0
  %29 = load double, ptr %28, align 8
  %30 = fptrunc double %29 to float
  %31 = load ptr, ptr %4, align 8
  %32 = call noundef ptr @_ZNK32pxrInternal_v0_24__pxrReserved__10GfMatrix4dixEi(ptr noundef nonnull align 8 dereferenceable(128) %31, i32 noundef 1)
  %33 = getelementptr inbounds double, ptr %32, i64 1
  %34 = load double, ptr %33, align 8
  %35 = fptrunc double %34 to float
  %36 = load ptr, ptr %4, align 8
  %37 = call noundef ptr @_ZNK32pxrInternal_v0_24__pxrReserved__10GfMatrix4dixEi(ptr noundef nonnull align 8 dereferenceable(128) %36, i32 noundef 1)
  %38 = getelementptr inbounds double, ptr %37, i64 2
  %39 = load double, ptr %38, align 8
  %40 = fptrunc double %39 to float
  %41 = load ptr, ptr %4, align 8
  %42 = call noundef ptr @_ZNK32pxrInternal_v0_24__pxrReserved__10GfMatrix4dixEi(ptr noundef nonnull align 8 dereferenceable(128) %41, i32 noundef 1)
  %43 = getelementptr inbounds double, ptr %42, i64 3
  %44 = load double, ptr %43, align 8
  %45 = fptrunc double %44 to float
  %46 = load ptr, ptr %4, align 8
  %47 = call noundef ptr @_ZNK32pxrInternal_v0_24__pxrReserved__10GfMatrix4dixEi(ptr noundef nonnull align 8 dereferenceable(128) %46, i32 noundef 2)
  %48 = getelementptr inbounds double, ptr %47, i64 0
  %49 = load double, ptr %48, align 8
  %50 = fptrunc double %49 to float
  %51 = load ptr, ptr %4, align 8
  %52 = call noundef ptr @_ZNK32pxrInternal_v0_24__pxrReserved__10GfMatrix4dixEi(ptr noundef nonnull align 8 dereferenceable(128) %51, i32 noundef 2)
  %53 = getelementptr inbounds double, ptr %52, i64 1
  %54 = load double, ptr %53, align 8
  %55 = fptrunc double %54 to float
  %56 = load ptr, ptr %4, align 8
  %57 = call noundef ptr @_ZNK32pxrInternal_v0_24__pxrReserved__10GfMatrix4dixEi(ptr noundef nonnull align 8 dereferenceable(128) %56, i32 noundef 2)
  %58 = getelementptr inbounds double, ptr %57, i64 2
  %59 = load double, ptr %58, align 8
  %60 = fptrunc double %59 to float
  %61 = load ptr, ptr %4, align 8
  %62 = call noundef ptr @_ZNK32pxrInternal_v0_24__pxrReserved__10GfMatrix4dixEi(ptr noundef nonnull align 8 dereferenceable(128) %61, i32 noundef 2)
  %63 = getelementptr inbounds double, ptr %62, i64 3
  %64 = load double, ptr %63, align 8
  %65 = fptrunc double %64 to float
  %66 = load ptr, ptr %4, align 8
  %67 = call noundef ptr @_ZNK32pxrInternal_v0_24__pxrReserved__10GfMatrix4dixEi(ptr noundef nonnull align 8 dereferenceable(128) %66, i32 noundef 3)
  %68 = getelementptr inbounds double, ptr %67, i64 0
  %69 = load double, ptr %68, align 8
  %70 = fptrunc double %69 to float
  %71 = load ptr, ptr %4, align 8
  %72 = call noundef ptr @_ZNK32pxrInternal_v0_24__pxrReserved__10GfMatrix4dixEi(ptr noundef nonnull align 8 dereferenceable(128) %71, i32 noundef 3)
  %73 = getelementptr inbounds double, ptr %72, i64 1
  %74 = load double, ptr %73, align 8
  %75 = fptrunc double %74 to float
  %76 = load ptr, ptr %4, align 8
  %77 = call noundef ptr @_ZNK32pxrInternal_v0_24__pxrReserved__10GfMatrix4dixEi(ptr noundef nonnull align 8 dereferenceable(128) %76, i32 noundef 3)
  %78 = getelementptr inbounds double, ptr %77, i64 2
  %79 = load double, ptr %78, align 8
  %80 = fptrunc double %79 to float
  %81 = load ptr, ptr %4, align 8
  %82 = call noundef ptr @_ZNK32pxrInternal_v0_24__pxrReserved__10GfMatrix4dixEi(ptr noundef nonnull align 8 dereferenceable(128) %81, i32 noundef 3)
  %83 = getelementptr inbounds double, ptr %82, i64 3
  %84 = load double, ptr %83, align 8
  %85 = fptrunc double %84 to float
  %86 = call noundef nonnull align 4 dereferenceable(64) ptr @_ZN32pxrInternal_v0_24__pxrReserved__10GfMatrix4f3SetEffffffffffffffff(ptr noundef nonnull align 4 dereferenceable(64) %5, float noundef %10, float noundef %15, float noundef %20, float noundef %25, float noundef %30, float noundef %35, float noundef %40, float noundef %45, float noundef %50, float noundef %55, float noundef %60, float noundef %65, float noundef %70, float noundef %75, float noundef %80, float noundef %85)
  ret void
}