; Function Attrs: mustprogress nofree norecurse nosync nounwind willreturn memory(argmem: readwrite) uwtable
define void @_ZN32pxrInternal_v0_24__pxrReserved__10GfMatrix4fC2ERKNS_10GfMatrix4dE(ptr noundef nonnull writeonly align 4 captures(none) dereferenceable(64) initializes((0, 64)) %0, ptr noundef nonnull readonly align 8 captures(none) dereferenceable(128) %1) unnamed_addr #2 align 2 {
  %3 = load double, ptr %1, align 8
  %4 = fptrunc double %3 to float
  %5 = getelementptr inbounds nuw i8, ptr %1, i64 8
  %6 = load double, ptr %5, align 8
  %7 = fptrunc double %6 to float
  %8 = getelementptr inbounds nuw i8, ptr %1, i64 16
  %9 = load double, ptr %8, align 8
  %10 = fptrunc double %9 to float
  %11 = getelementptr inbounds nuw i8, ptr %1, i64 24
  %12 = load double, ptr %11, align 8
  %13 = fptrunc double %12 to float
  %14 = getelementptr inbounds nuw i8, ptr %1, i64 32
  %15 = load double, ptr %14, align 8
  %16 = fptrunc double %15 to float
  %17 = getelementptr inbounds nuw i8, ptr %1, i64 40
  %18 = load double, ptr %17, align 8
  %19 = fptrunc double %18 to float
  %20 = getelementptr inbounds nuw i8, ptr %1, i64 48
  %21 = load double, ptr %20, align 8
  %22 = fptrunc double %21 to float
  %23 = getelementptr inbounds nuw i8, ptr %1, i64 56
  %24 = load double, ptr %23, align 8
  %25 = fptrunc double %24 to float
  %26 = getelementptr inbounds nuw i8, ptr %1, i64 64
  %27 = load double, ptr %26, align 8
  %28 = fptrunc double %27 to float
  %29 = getelementptr inbounds nuw i8, ptr %1, i64 72
  %30 = load double, ptr %29, align 8
  %31 = fptrunc double %30 to float
  %32 = getelementptr inbounds nuw i8, ptr %1, i64 80
  %33 = load double, ptr %32, align 8
  %34 = fptrunc double %33 to float
  %35 = getelementptr inbounds nuw i8, ptr %1, i64 88
  %36 = load double, ptr %35, align 8
  %37 = fptrunc double %36 to float
  %38 = getelementptr inbounds nuw i8, ptr %1, i64 96
  %39 = load double, ptr %38, align 8
  %40 = fptrunc double %39 to float
  %41 = getelementptr inbounds nuw i8, ptr %1, i64 104
  %42 = load double, ptr %41, align 8
  %43 = fptrunc double %42 to float
  %44 = getelementptr inbounds nuw i8, ptr %1, i64 112
  %45 = load double, ptr %44, align 8
  %46 = fptrunc double %45 to float
  %47 = getelementptr inbounds nuw i8, ptr %1, i64 120
  %48 = load double, ptr %47, align 8
  %49 = fptrunc double %48 to float
  store float %4, ptr %0, align 4
  %50 = getelementptr inbounds nuw i8, ptr %0, i64 4
  store float %7, ptr %50, align 4
  %51 = getelementptr inbounds nuw i8, ptr %0, i64 8
  store float %10, ptr %51, align 4
  %52 = getelementptr inbounds nuw i8, ptr %0, i64 12
  store float %13, ptr %52, align 4
  %53 = getelementptr inbounds nuw i8, ptr %0, i64 16
  store float %16, ptr %53, align 4
  %54 = getelementptr inbounds nuw i8, ptr %0, i64 20
  store float %19, ptr %54, align 4
  %55 = getelementptr inbounds nuw i8, ptr %0, i64 24
  store float %22, ptr %55, align 4
  %56 = getelementptr inbounds nuw i8, ptr %0, i64 28
  store float %25, ptr %56, align 4
  %57 = getelementptr inbounds nuw i8, ptr %0, i64 32
  store float %28, ptr %57, align 4
  %58 = getelementptr inbounds nuw i8, ptr %0, i64 36
  store float %31, ptr %58, align 4
  %59 = getelementptr inbounds nuw i8, ptr %0, i64 40
  store float %34, ptr %59, align 4
  %60 = getelementptr inbounds nuw i8, ptr %0, i64 44
  store float %37, ptr %60, align 4
  %61 = getelementptr inbounds nuw i8, ptr %0, i64 48
  store float %40, ptr %61, align 4
  %62 = getelementptr inbounds nuw i8, ptr %0, i64 52
  store float %43, ptr %62, align 4
  %63 = getelementptr inbounds nuw i8, ptr %0, i64 56
  store float %46, ptr %63, align 4
  %64 = getelementptr inbounds nuw i8, ptr %0, i64 60
  store float %49, ptr %64, align 4
  ret void
}